target datalayout = "e-m:e-p270:32:32-p271:32:32-p272:64:64-i64:64-i128:128-f80:128-n8:16:32:64-S128"
target triple = "x86_64-pc-linux-gnu"

%union.fp32_t = type { i32 }
%struct.tiff_t = type { ptr, i32, i32, i16, i16, i16, i32, ptr, ptr, ptr }

@_half_to_float.magic = internal constant %union.fp32_t { i32 947912704 }, align 4

; Function Attrs: inlinehint nounwind uwtable
define internal float @_half_to_float(i16 noundef zeroext %0) #4 {
  %2 = alloca i16, align 2
  %3 = alloca %union.fp32_t, align 4
  %4 = alloca i32, align 4
  store i16 %0, ptr %2, align 2, !tbaa !36
  call void @llvm.lifetime.start.p0(i64 4, ptr %3) #8
  %5 = load i16, ptr %2, align 2, !tbaa !36
  %6 = zext i16 %5 to i32
  %7 = and i32 %6, 32767
  %8 = shl i32 %7, 13
  store i32 %8, ptr %3, align 4, !tbaa !15
  call void @llvm.lifetime.start.p0(i64 4, ptr %4) #8
  %9 = load i32, ptr %3, align 4, !tbaa !15
  %10 = and i32 260046848, %9
  store i32 %10, ptr %4, align 4, !tbaa !86
  %11 = load i32, ptr %3, align 4, !tbaa !15
  %12 = add i32 %11, 939524096
  store i32 %12, ptr %3, align 4, !tbaa !15
  %13 = load i32, ptr %4, align 4, !tbaa !86
  %14 = icmp eq i32 %13, 260046848
  br i1 %14, label %15, label %18

15:                                               ; preds = %1
  %16 = load i32, ptr %3, align 4, !tbaa !15
  %17 = add i32 %16, 939524096
  store i32 %17, ptr %3, align 4, !tbaa !15
  br label %28

18:                                               ; preds = %1
  %19 = load i32, ptr %4, align 4, !tbaa !86
  %20 = icmp eq i32 %19, 0
  br i1 %20, label %21, label %27

21:                                               ; preds = %18
  %22 = load i32, ptr %3, align 4, !tbaa !15
  %23 = add i32 %22, 8388608
  store i32 %23, ptr %3, align 4, !tbaa !15
  %24 = load float, ptr @_half_to_float.magic, align 4, !tbaa !15
  %25 = load float, ptr %3, align 4, !tbaa !15
  %26 = fsub reassoc nsz arcp contract afn float %25, %24
  store float %26, ptr %3, align 4, !tbaa !15
  br label %27

27:                                               ; preds = %21, %18
  br label %28

28:                                               ; preds = %27, %15
  %29 = load i16, ptr %2, align 2, !tbaa !36
  %30 = zext i16 %29 to i32
  %31 = and i32 %30, 32768
  %32 = shl i32 %31, 16
  %33 = load i32, ptr %3, align 4, !tbaa !15
  %34 = or i32 %33, %32
  store i32 %34, ptr %3, align 4, !tbaa !15
  %35 = load float, ptr %3, align 4, !tbaa !15
  call void @llvm.lifetime.end.p0(i64 4, ptr %4) #8
  call void @llvm.lifetime.end.p0(i64 4, ptr %3) #8
  ret float %35
}

; Function Attrs: inlinehint nounwind uwtable
define internal i32 @_read_chunky_h(ptr noundef %0) #4 {
  %2 = alloca i32, align 4
  %3 = alloca ptr, align 8
  %4 = alloca i32, align 4
  %5 = alloca i32, align 4
  %6 = alloca ptr, align 8
  %7 = alloca ptr, align 8
  %8 = alloca i32, align 4
  store ptr %0, ptr %3, align 8, !tbaa !90
  call void @llvm.lifetime.start.p0(i64 4, ptr %4) #8
  store i32 0, ptr %4, align 4, !tbaa !86
  br label %9

9:                                                ; preds = %100, %1
  %10 = load i32, ptr %4, align 4, !tbaa !86
  %11 = load ptr, ptr %3, align 8, !tbaa !90
  %12 = getelementptr inbounds nuw %struct.tiff_t, ptr %11, i32 0, i32 2
  %13 = load i32, ptr %12, align 4, !tbaa !73
  %14 = icmp ult i32 %10, %13
  br i1 %14, label %16, label %15

15:                                               ; preds = %9
  store i32 2, ptr %5, align 4
  br label %103

16:                                               ; preds = %9
  call void @llvm.lifetime.start.p0(i64 8, ptr %6) #8
  %17 = load ptr, ptr %3, align 8, !tbaa !90
  %18 = getelementptr inbounds nuw %struct.tiff_t, ptr %17, i32 0, i32 9
  %19 = load ptr, ptr %18, align 8, !tbaa !83
  store ptr %19, ptr %6, align 8, !tbaa !97
  call void @llvm.lifetime.start.p0(i64 8, ptr %7) #8
  %20 = load ptr, ptr %3, align 8, !tbaa !90
  %21 = getelementptr inbounds nuw %struct.tiff_t, ptr %20, i32 0, i32 8
  %22 = load ptr, ptr %21, align 8, !tbaa !82
  %23 = load i32, ptr %4, align 4, !tbaa !86
  %24 = zext i32 %23 to i64
  %25 = mul i64 4, %24
  %26 = load ptr, ptr %3, align 8, !tbaa !90
  %27 = getelementptr inbounds nuw %struct.tiff_t, ptr %26, i32 0, i32 1
  %28 = load i32, ptr %27, align 8, !tbaa !72
  %29 = zext i32 %28 to i64
  %30 = mul i64 %25, %29
  %31 = getelementptr inbounds nuw float, ptr %22, i64 %30
  store ptr %31, ptr %7, align 8, !tbaa !95
  %32 = load ptr, ptr %3, align 8, !tbaa !90
  %33 = getelementptr inbounds nuw %struct.tiff_t, ptr %32, i32 0, i32 0
  %34 = load ptr, ptr %33, align 8, !tbaa !35
  %35 = load ptr, ptr %6, align 8, !tbaa !97
  %36 = load i32, ptr %4, align 4, !tbaa !86
  %37 = call i32 @TIFFReadScanline(ptr noundef %34, ptr noundef %35, i32 noundef %36, i16 noundef zeroext 0)
  %38 = icmp eq i32 %37, -1
  br i1 %38, label %39, label %40

39:                                               ; preds = %16
  store i32 -1, ptr %2, align 4
  store i32 1, ptr %5, align 4
  br label %97

40:                                               ; preds = %16
  call void @llvm.lifetime.start.p0(i64 4, ptr %8) #8
  store i32 0, ptr %8, align 4, !tbaa !86
  br label %41

41:                                               ; preds = %84, %40
  %42 = load i32, ptr %8, align 4, !tbaa !86
  %43 = load ptr, ptr %3, align 8, !tbaa !90
  %44 = getelementptr inbounds nuw %struct.tiff_t, ptr %43, i32 0, i32 1
  %45 = load i32, ptr %44, align 8, !tbaa !72
  %46 = icmp ult i32 %42, %45
  br i1 %46, label %48, label %47

47:                                               ; preds = %41
  store i32 5, ptr %5, align 4
  call void @llvm.lifetime.end.p0(i64 4, ptr %8) #8
  br label %96

48:                                               ; preds = %41
  %49 = load ptr, ptr %6, align 8, !tbaa !97
  %50 = getelementptr inbounds i16, ptr %49, i64 0
  %51 = load i16, ptr %50, align 2, !tbaa !36
  %52 = call reassoc nsz arcp contract afn float @_half_to_float(i16 noundef zeroext %51)
  %53 = load ptr, ptr %7, align 8, !tbaa !95
  %54 = getelementptr inbounds float, ptr %53, i64 0
  store float %52, ptr %54, align 4, !tbaa !96
  %55 = load ptr, ptr %3, align 8, !tbaa !90
  %56 = getelementptr inbounds nuw %struct.tiff_t, ptr %55, i32 0, i32 4
  %57 = load i16, ptr %56, align 2, !tbaa !75
  %58 = zext i16 %57 to i32
  %59 = icmp slt i32 %58, 3
  br i1 %59, label %60, label %68

60:                                               ; preds = %48
  %61 = load ptr, ptr %7, align 8, !tbaa !95
  %62 = getelementptr inbounds float, ptr %61, i64 0
  %63 = load float, ptr %62, align 4, !tbaa !96
  %64 = load ptr, ptr %7, align 8, !tbaa !95
  %65 = getelementptr inbounds float, ptr %64, i64 2
  store float %63, ptr %65, align 4, !tbaa !96
  %66 = load ptr, ptr %7, align 8, !tbaa !95
  %67 = getelementptr inbounds float, ptr %66, i64 1
  store float %63, ptr %67, align 4, !tbaa !96
  br label %81

68:                                               ; preds = %48
  %69 = load ptr, ptr %6, align 8, !tbaa !97
  %70 = getelementptr inbounds i16, ptr %69, i64 1
  %71 = load i16, ptr %70, align 2, !tbaa !36
  %72 = call reassoc nsz arcp contract afn float @_half_to_float(i16 noundef zeroext %71)
  %73 = load ptr, ptr %7, align 8, !tbaa !95
  %74 = getelementptr inbounds float, ptr %73, i64 1
  store float %72, ptr %74, align 4, !tbaa !96
  %75 = load ptr, ptr %6, align 8, !tbaa !97
  %76 = getelementptr inbounds i16, ptr %75, i64 2
  %77 = load i16, ptr %76, align 2, !tbaa !36
  %78 = call reassoc nsz arcp contract afn float @_half_to_float(i16 noundef zeroext %77)
  %79 = load ptr, ptr %7, align 8, !tbaa !95
  %80 = getelementptr inbounds float, ptr %79, i64 2
  store float %78, ptr %80, align 4, !tbaa !96
  br label %81

81:                                               ; preds = %68, %60
  %82 = load ptr, ptr %7, align 8, !tbaa !95
  %83 = getelementptr inbounds float, ptr %82, i64 3
  store float 0.000000e+00, ptr %83, align 4, !tbaa !96
  br label %84

84:                                               ; preds = %81
  %85 = load i32, ptr %8, align 4, !tbaa !86
  %86 = add i32 %85, 1
  store i32 %86, ptr %8, align 4, !tbaa !86
  %87 = load ptr, ptr %3, align 8, !tbaa !90
  %88 = getelementptr inbounds nuw %struct.tiff_t, ptr %87, i32 0, i32 4
  %89 = load i16, ptr %88, align 2, !tbaa !75
  %90 = zext i16 %89 to i32
  %91 = load ptr, ptr %6, align 8, !tbaa !97
  %92 = sext i32 %90 to i64
  %93 = getelementptr inbounds i16, ptr %91, i64 %92
  store ptr %93, ptr %6, align 8, !tbaa !97
  %94 = load ptr, ptr %7, align 8, !tbaa !95
  %95 = getelementptr inbounds float, ptr %94, i64 4
  store ptr %95, ptr %7, align 8, !tbaa !95
  br label %41

96:                                               ; preds = %47
  store i32 0, ptr %5, align 4
  br label %97

97:                                               ; preds = %96, %39
  call void @llvm.lifetime.end.p0(i64 8, ptr %7) #8
  call void @llvm.lifetime.end.p0(i64 8, ptr %6) #8
  %98 = load i32, ptr %5, align 4
  switch i32 %98, label %103 [
    i32 0, label %99
  ]

99:                                               ; preds = %97
  br label %100

100:                                              ; preds = %99
  %101 = load i32, ptr %4, align 4, !tbaa !86
  %102 = add i32 %101, 1
  store i32 %102, ptr %4, align 4, !tbaa !86
  br label %9

103:                                              ; preds = %97, %15
  call void @llvm.lifetime.end.p0(i64 4, ptr %4) #8
  %104 = load i32, ptr %5, align 4
  switch i32 %104, label %108 [
    i32 2, label %105
    i32 1, label %106
  ]

105:                                              ; preds = %103
  store i32 1, ptr %2, align 4
  br label %106

106:                                              ; preds = %105, %103
  %107 = load i32, ptr %2, align 4
  ret i32 %107

108:                                              ; preds = %103
  unreachable
}