; Function Attrs: inlinehint nounwind uwtable
define internal fastcc range(i32 -1, 2) i32 @_read_chunky_h(ptr noundef nonnull readonly captures(none) %0) unnamed_addr #6 {
  %2 = getelementptr inbounds nuw i8, ptr %0, i64 48
  %3 = getelementptr inbounds nuw i8, ptr %0, i64 12
  %4 = load i32, ptr %3, align 4, !tbaa !69
  %.not4145.not = icmp eq i32 %4, 0
  br i1 %.not4145.not, label %.critedge, label %.lr.ph48

.lr.ph48:                                         ; preds = %1
  %5 = getelementptr inbounds nuw i8, ptr %0, i64 40
  %6 = getelementptr inbounds nuw i8, ptr %0, i64 8
  %7 = getelementptr inbounds nuw i8, ptr %0, i64 18
  %.pre = load i32, ptr %6, align 8, !tbaa !68
  br label %8

8:                                                ; preds = %.lr.ph48, %._crit_edge
  %9 = phi i32 [ %.pre, %.lr.ph48 ], [ %16, %._crit_edge ]
  %indvars.iv = phi i64 [ 0, %.lr.ph48 ], [ %indvars.iv.next, %._crit_edge ]
  %10 = load ptr, ptr %2, align 8, !tbaa !79
  %11 = load ptr, ptr %5, align 8, !tbaa !78
  %12 = load ptr, ptr %0, align 8, !tbaa !31
  %13 = trunc nuw i64 %indvars.iv to i32
  %14 = tail call i32 @TIFFReadScanline(ptr noundef %12, ptr noundef %10, i32 noundef %13, i16 noundef zeroext 0) #11
  %.not = icmp eq i32 %14, -1
  br i1 %.not, label %.critedge, label %15

15:                                               ; preds = %8
  %16 = load i32, ptr %6, align 8, !tbaa !68
  %.not51 = icmp eq i32 %16, 0
  br i1 %.not51, label %._crit_edge, label %.lr.ph

.lr.ph:                                           ; preds = %15
  %17 = shl nuw nsw i64 %indvars.iv, 2
  %18 = zext i32 %9 to i64
  %19 = mul i64 %17, %18
  %20 = getelementptr inbounds nuw float, ptr %11, i64 %19
  %21 = load i16, ptr %7, align 2, !tbaa !71
  %22 = icmp ult i16 %21, 3
  %23 = zext i16 %21 to i64
  br i1 %22, label %.lr.ph.split.us, label %.lr.ph.split

.lr.ph.split.us:                                  ; preds = %.lr.ph, %_half_to_float.exit.us
  %.044.us = phi i32 [ %45, %_half_to_float.exit.us ], [ 0, %.lr.ph ]
  %.02943.us = phi ptr [ %47, %_half_to_float.exit.us ], [ %20, %.lr.ph ]
  %.03042.us = phi ptr [ %46, %_half_to_float.exit.us ], [ %10, %.lr.ph ]
  %24 = load i16, ptr %.03042.us, align 2, !tbaa !32
  %25 = zext i16 %24 to i32
  %26 = shl nuw nsw i32 %25, 13
  %27 = and i32 %26, 260046848
  %28 = icmp eq i32 %27, 260046848
  br i1 %28, label %38, label %29

29:                                               ; preds = %.lr.ph.split.us
  %30 = and i32 %26, 268427264
  %31 = add nuw nsw i32 %30, 939524096
  %32 = icmp eq i32 %27, 0
  br i1 %32, label %33, label %_half_to_float.exit.us

33:                                               ; preds = %29
  %34 = or i32 %26, 947912704
  %35 = bitcast i32 %34 to float
  %36 = fadd reassoc nsz arcp contract afn float %35, 0xBF10000000000000
  %37 = bitcast float %36 to i32
  br label %_half_to_float.exit.us

38:                                               ; preds = %.lr.ph.split.us
  %39 = or i32 %26, 1879048192
  br label %_half_to_float.exit.us

_half_to_float.exit.us:                           ; preds = %38, %33, %29
  %.sroa.0.0.i.us = phi i32 [ %39, %38 ], [ %37, %33 ], [ %31, %29 ]
  %.signext.i.us = sext i16 %24 to i32
  %40 = and i32 %.signext.i.us, -2147483648
  %41 = or i32 %.sroa.0.0.i.us, %40
  store i32 %41, ptr %.02943.us, align 4, !tbaa !85
  %42 = getelementptr inbounds nuw i8, ptr %.02943.us, i64 8
  store i32 %41, ptr %42, align 4, !tbaa !85
  %43 = getelementptr inbounds nuw i8, ptr %.02943.us, i64 4
  store i32 %41, ptr %43, align 4, !tbaa !85
  %44 = getelementptr inbounds nuw i8, ptr %.02943.us, i64 12
  store float 0.000000e+00, ptr %44, align 4, !tbaa !85
  %45 = add nuw i32 %.044.us, 1
  %46 = getelementptr inbounds nuw i16, ptr %.03042.us, i64 %23
  %47 = getelementptr inbounds nuw i8, ptr %.02943.us, i64 16
  %exitcond53.not = icmp eq i32 %45, %16
  br i1 %exitcond53.not, label %._crit_edge, label %.lr.ph.split.us

.lr.ph.split:                                     ; preds = %.lr.ph, %_half_to_float.exit40
  %.044 = phi i32 [ %107, %_half_to_float.exit40 ], [ 0, %.lr.ph ]
  %.02943 = phi ptr [ %109, %_half_to_float.exit40 ], [ %20, %.lr.ph ]
  %.03042 = phi ptr [ %108, %_half_to_float.exit40 ], [ %10, %.lr.ph ]
  %48 = load i16, ptr %.03042, align 2, !tbaa !32
  %49 = zext i16 %48 to i32
  %50 = shl nuw nsw i32 %49, 13
  %51 = and i32 %50, 260046848
  %52 = icmp eq i32 %51, 260046848
  br i1 %52, label %53, label %55

53:                                               ; preds = %.lr.ph.split
  %54 = or i32 %50, 1879048192
  br label %_half_to_float.exit

55:                                               ; preds = %.lr.ph.split
  %56 = and i32 %50, 268427264
  %57 = add nuw nsw i32 %56, 939524096
  %58 = icmp eq i32 %51, 0
  br i1 %58, label %59, label %_half_to_float.exit

59:                                               ; preds = %55
  %60 = or i32 %50, 947912704
  %61 = bitcast i32 %60 to float
  %62 = fadd reassoc nsz arcp contract afn float %61, 0xBF10000000000000
  %63 = bitcast float %62 to i32
  br label %_half_to_float.exit

_half_to_float.exit:                              ; preds = %53, %55, %59
  %.sroa.0.0.i = phi i32 [ %54, %53 ], [ %63, %59 ], [ %57, %55 ]
  %.signext.i = sext i16 %48 to i32
  %64 = and i32 %.signext.i, -2147483648
  %65 = or i32 %.sroa.0.0.i, %64
  store i32 %65, ptr %.02943, align 4, !tbaa !85
  %66 = getelementptr inbounds nuw i8, ptr %.03042, i64 2
  %67 = load i16, ptr %66, align 2, !tbaa !32
  %68 = zext i16 %67 to i32
  %69 = shl nuw nsw i32 %68, 13
  %70 = and i32 %69, 260046848
  %71 = icmp eq i32 %70, 260046848
  br i1 %71, label %72, label %74

72:                                               ; preds = %_half_to_float.exit
  %73 = or i32 %69, 1879048192
  br label %_half_to_float.exit37

74:                                               ; preds = %_half_to_float.exit
  %75 = and i32 %69, 268427264
  %76 = add nuw nsw i32 %75, 939524096
  %77 = icmp eq i32 %70, 0
  br i1 %77, label %78, label %_half_to_float.exit37

78:                                               ; preds = %74
  %79 = or i32 %69, 947912704
  %80 = bitcast i32 %79 to float
  %81 = fadd reassoc nsz arcp contract afn float %80, 0xBF10000000000000
  %82 = bitcast float %81 to i32
  br label %_half_to_float.exit37

_half_to_float.exit37:                            ; preds = %72, %74, %78
  %.sroa.0.0.i35 = phi i32 [ %73, %72 ], [ %82, %78 ], [ %76, %74 ]
  %.signext.i36 = sext i16 %67 to i32
  %83 = and i32 %.signext.i36, -2147483648
  %84 = or i32 %.sroa.0.0.i35, %83
  %85 = getelementptr inbounds nuw i8, ptr %.02943, i64 4
  store i32 %84, ptr %85, align 4, !tbaa !85
  %86 = getelementptr inbounds nuw i8, ptr %.03042, i64 4
  %87 = load i16, ptr %86, align 2, !tbaa !32
  %88 = zext i16 %87 to i32
  %89 = shl nuw nsw i32 %88, 13
  %90 = and i32 %89, 260046848
  %91 = icmp eq i32 %90, 260046848
  br i1 %91, label %92, label %94

92:                                               ; preds = %_half_to_float.exit37
  %93 = or i32 %89, 1879048192
  br label %_half_to_float.exit40

94:                                               ; preds = %_half_to_float.exit37
  %95 = and i32 %89, 268427264
  %96 = add nuw nsw i32 %95, 939524096
  %97 = icmp eq i32 %90, 0
  br i1 %97, label %98, label %_half_to_float.exit40

98:                                               ; preds = %94
  %99 = or i32 %89, 947912704
  %100 = bitcast i32 %99 to float
  %101 = fadd reassoc nsz arcp contract afn float %100, 0xBF10000000000000
  %102 = bitcast float %101 to i32
  br label %_half_to_float.exit40

_half_to_float.exit40:                            ; preds = %92, %94, %98
  %.sroa.0.0.i38 = phi i32 [ %93, %92 ], [ %102, %98 ], [ %96, %94 ]
  %.signext.i39 = sext i16 %87 to i32
  %103 = and i32 %.signext.i39, -2147483648
  %104 = or i32 %.sroa.0.0.i38, %103
  %105 = getelementptr inbounds nuw i8, ptr %.02943, i64 8
  store i32 %104, ptr %105, align 4, !tbaa !85
  %106 = getelementptr inbounds nuw i8, ptr %.02943, i64 12
  store float 0.000000e+00, ptr %106, align 4, !tbaa !85
  %107 = add nuw i32 %.044, 1
  %108 = getelementptr inbounds nuw i16, ptr %.03042, i64 %23
  %109 = getelementptr inbounds nuw i8, ptr %.02943, i64 16
  %exitcond.not = icmp eq i32 %107, %16
  br i1 %exitcond.not, label %._crit_edge, label %.lr.ph.split

._crit_edge:                                      ; preds = %_half_to_float.exit40, %_half_to_float.exit.us, %15
  %indvars.iv.next = add nuw nsw i64 %indvars.iv, 1
  %110 = load i32, ptr %3, align 4, !tbaa !69
  %111 = zext i32 %110 to i64
  %.not41 = icmp samesign ult i64 %indvars.iv.next, %111
  br i1 %.not41, label %8, label %.critedge

.critedge:                                        ; preds = %._crit_edge, %8, %1
  %spec.select = phi i32 [ 1, %1 ], [ -1, %8 ], [ 1, %._crit_edge ]
  ret i32 %spec.select
}